target datalayout = "e-m:e-p270:32:32-p271:32:32-p272:64:64-i64:64-i128:128-f80:128-n8:16:32:64-S128"
target triple = "x86_64-pc-linux-gnu"

%struct.RelationData = type { %struct.RelFileLocator, ptr, i32, i32, i8, i8, i8, i8, i8, i32, i32, i32, i32, ptr, ptr, i32, %struct.LockInfoData, ptr, ptr, ptr, ptr, ptr, i8, ptr, ptr, ptr, ptr, ptr, ptr, i32, ptr, i8, ptr, ptr, i32, i8, i32, ptr, i8, ptr, ptr, ptr, ptr, ptr, ptr, ptr, i32, ptr, ptr, ptr, ptr, ptr, ptr, ptr, ptr, ptr, ptr, ptr, ptr, ptr, ptr, ptr, ptr, ptr, ptr, ptr, i32, i8, ptr }
%struct.RelFileLocator = type { i32, i32, i32 }
%struct.LockInfoData = type { %struct.LockRelId }
%struct.LockRelId = type { i32, i32 }
%struct.IndexAmRoutine = type { i32, i16, i16, i16, i8, i8, i8, i8, i8, i8, i8, i8, i8, i8, i8, i8, i8, i8, i8, i8, i8, i32, ptr, ptr, ptr, ptr, ptr, ptr, ptr, ptr, ptr, ptr, ptr, ptr, ptr, ptr, ptr, ptr, ptr, ptr, ptr, ptr, ptr, ptr, ptr, ptr, ptr, ptr }
%struct.local_relopts = type { ptr, ptr, i64 }
%struct.oidvector = type { i32, i32, i32, i32, i32, i32, [0 x i32] }

@.str.1 = private unnamed_addr constant [10 x i8] c"indexam.c\00", align 1
@.str.14 = private unnamed_addr constant [33 x i8] c"operator class %s has no options\00", align 1
@__func__.index_opclass_options = private unnamed_addr constant [22 x i8] c"index_opclass_options\00", align 1

; Function Attrs: inlinehint nounwind uwtable
define internal i64 @PointerGetDatum(ptr noundef %0) #3 {
  %2 = alloca ptr, align 8
  store ptr %0, ptr %2, align 8
  %3 = load ptr, ptr %2, align 8
  %4 = ptrtoint ptr %3 to i64
  ret i64 %4
}

; Function Attrs: inlinehint nounwind uwtable
define internal ptr @DatumGetPointer(i64 noundef %0) #3 {
  %2 = alloca i64, align 8
  store i64 %0, ptr %2, align 8
  %3 = load i64, ptr %2, align 8
  %4 = inttoptr i64 %3 to ptr
  ret ptr %4
}

; Function Attrs: nounwind uwtable
define dso_local i32 @index_getprocid(ptr noundef %0, i16 noundef signext %1, i16 noundef zeroext %2) #0 {
  %4 = alloca ptr, align 8
  %5 = alloca i16, align 2
  %6 = alloca i16, align 2
  %7 = alloca ptr, align 8
  %8 = alloca i32, align 4
  %9 = alloca i32, align 4
  store ptr %0, ptr %4, align 8
  store i16 %1, ptr %5, align 2
  store i16 %2, ptr %6, align 2
  call void @llvm.lifetime.start.p0(i64 8, ptr %7) #7
  call void @llvm.lifetime.start.p0(i64 4, ptr %8) #7
  call void @llvm.lifetime.start.p0(i64 4, ptr %9) #7
  %10 = load ptr, ptr %4, align 8
  %11 = getelementptr inbounds nuw %struct.RelationData, ptr %10, i32 0, i32 51
  %12 = load ptr, ptr %11, align 8
  %13 = getelementptr inbounds nuw %struct.IndexAmRoutine, ptr %12, i32 0, i32 2
  %14 = load i16, ptr %13, align 2
  %15 = zext i16 %14 to i32
  store i32 %15, ptr %8, align 4
  %16 = load i32, ptr %8, align 4
  %17 = load i16, ptr %5, align 2
  %18 = sext i16 %17 to i32
  %19 = sub i32 %18, 1
  %20 = mul i32 %16, %19
  %21 = load i16, ptr %6, align 2
  %22 = zext i16 %21 to i32
  %23 = sub i32 %22, 1
  %24 = add i32 %20, %23
  store i32 %24, ptr %9, align 4
  %25 = load ptr, ptr %4, align 8
  %26 = getelementptr inbounds nuw %struct.RelationData, ptr %25, i32 0, i32 54
  %27 = load ptr, ptr %26, align 8
  store ptr %27, ptr %7, align 8
  %28 = load ptr, ptr %7, align 8
  %29 = load i32, ptr %9, align 4
  %30 = sext i32 %29 to i64
  %31 = getelementptr inbounds i32, ptr %28, i64 %30
  %32 = load i32, ptr %31, align 4
  call void @llvm.lifetime.end.p0(i64 4, ptr %9) #7
  call void @llvm.lifetime.end.p0(i64 4, ptr %8) #7
  call void @llvm.lifetime.end.p0(i64 8, ptr %7) #7
  ret i32 %32
}

; Function Attrs: nounwind uwtable
define dso_local ptr @index_opclass_options(ptr noundef %0, i16 noundef signext %1, i64 noundef %2, i1 noundef zeroext %3) #0 {
  %5 = alloca ptr, align 8
  %6 = alloca ptr, align 8
  %7 = alloca i16, align 2
  %8 = alloca i64, align 8
  %9 = alloca i8, align 1
  %10 = alloca i32, align 4
  %11 = alloca i32, align 4
  %12 = alloca ptr, align 8
  %13 = alloca %struct.local_relopts, align 8
  %14 = alloca i32, align 4
  %15 = alloca i64, align 8
  %16 = alloca ptr, align 8
  %17 = alloca i32, align 4
  store ptr %0, ptr %6, align 8
  store i16 %1, ptr %7, align 2
  store i64 %2, ptr %8, align 8
  %18 = zext i1 %3 to i8
  store i8 %18, ptr %9, align 1
  call void @llvm.lifetime.start.p0(i64 4, ptr %10) #7
  %19 = load ptr, ptr %6, align 8
  %20 = getelementptr inbounds nuw %struct.RelationData, ptr %19, i32 0, i32 51
  %21 = load ptr, ptr %20, align 8
  %22 = getelementptr inbounds nuw %struct.IndexAmRoutine, ptr %21, i32 0, i32 3
  %23 = load i16, ptr %22, align 8
  %24 = zext i16 %23 to i32
  store i32 %24, ptr %10, align 4
  call void @llvm.lifetime.start.p0(i64 4, ptr %11) #7
  store i32 0, ptr %11, align 4
  call void @llvm.lifetime.start.p0(i64 8, ptr %12) #7
  call void @llvm.lifetime.start.p0(i64 24, ptr %13) #7
  %25 = load i32, ptr %10, align 4
  %26 = icmp ne i32 %25, 0
  br i1 %26, label %27, label %33

27:                                               ; preds = %4
  %28 = load ptr, ptr %6, align 8
  %29 = load i16, ptr %7, align 2
  %30 = load i32, ptr %10, align 4
  %31 = trunc i32 %30 to i16
  %32 = call i32 @index_getprocid(ptr noundef %28, i16 noundef signext %29, i16 noundef zeroext %31)
  store i32 %32, ptr %11, align 4
  br label %33

33:                                               ; preds = %27, %4
  %34 = load i32, ptr %11, align 4
  %35 = icmp ne i32 %34, 0
  br i1 %35, label %72, label %36

36:                                               ; preds = %33
  call void @llvm.lifetime.start.p0(i64 4, ptr %14) #7
  call void @llvm.lifetime.start.p0(i64 8, ptr %15) #7
  call void @llvm.lifetime.start.p0(i64 8, ptr %16) #7
  %37 = load i64, ptr %8, align 8
  %38 = call ptr @DatumGetPointer(i64 noundef %37)
  %39 = icmp ne ptr %38, null
  br i1 %39, label %41, label %40

40:                                               ; preds = %36
  store ptr null, ptr %5, align 8
  store i32 1, ptr %17, align 4
  br label %69

41:                                               ; preds = %36
  %42 = load ptr, ptr %6, align 8
  %43 = getelementptr inbounds nuw %struct.RelationData, ptr %42, i32 0, i32 49
  %44 = load ptr, ptr %43, align 8
  %45 = call i64 @SysCacheGetAttrNotNull(i32 noundef 34, ptr noundef %44, i16 noundef signext 18)
  store i64 %45, ptr %15, align 8
  %46 = load i64, ptr %15, align 8
  %47 = call ptr @DatumGetPointer(i64 noundef %46)
  store ptr %47, ptr %16, align 8
  %48 = load ptr, ptr %16, align 8
  %49 = getelementptr inbounds nuw %struct.oidvector, ptr %48, i32 0, i32 6
  %50 = load i16, ptr %7, align 2
  %51 = sext i16 %50 to i32
  %52 = sub i32 %51, 1
  %53 = sext i32 %52 to i64
  %54 = getelementptr inbounds [0 x i32], ptr %49, i64 0, i64 %53
  %55 = load i32, ptr %54, align 4
  store i32 %55, ptr %14, align 4
  br label %56

56:                                               ; preds = %41
  br i1 true, label %57, label %59

57:                                               ; preds = %56
  %58 = call zeroext i1 @errstart_cold(i32 noundef 21, ptr noundef null) #8
  br i1 %58, label %61, label %66

59:                                               ; preds = %56
  %60 = call zeroext i1 @errstart(i32 noundef 21, ptr noundef null)
  br i1 %60, label %61, label %66

61:                                               ; preds = %59, %57
  %62 = call i32 @errcode(i32 noundef 50856066)
  %63 = load i32, ptr %14, align 4
  %64 = call ptr @generate_opclass_name(i32 noundef %63)
  %65 = call i32 (ptr, ...) @errmsg(ptr noundef @.str.14, ptr noundef %64)
  call void @errfinish(ptr noundef @.str.1, i32 noundef 1031, ptr noundef @__func__.index_opclass_options)
  br label %66

66:                                               ; preds = %61, %59, %57
  unreachable

67:                                               ; No predecessors!
  br label %68

68:                                               ; preds = %67
  store i32 0, ptr %17, align 4
  br label %69

69:                                               ; preds = %68, %40
  call void @llvm.lifetime.end.p0(i64 8, ptr %16) #7
  call void @llvm.lifetime.end.p0(i64 8, ptr %15) #7
  call void @llvm.lifetime.end.p0(i64 4, ptr %14) #7
  %70 = load i32, ptr %17, align 4
  switch i32 %70, label %85 [
    i32 0, label %71
  ]

71:                                               ; preds = %69
  br label %72

72:                                               ; preds = %71, %33
  call void @init_local_reloptions(ptr noundef %13, i64 noundef 0)
  %73 = load ptr, ptr %6, align 8
  %74 = load i16, ptr %7, align 2
  %75 = load i32, ptr %10, align 4
  %76 = trunc i32 %75 to i16
  %77 = call ptr @index_getprocinfo(ptr noundef %73, i16 noundef signext %74, i16 noundef zeroext %76)
  store ptr %77, ptr %12, align 8
  %78 = load ptr, ptr %12, align 8
  %79 = call i64 @PointerGetDatum(ptr noundef %13)
  %80 = call i64 @FunctionCall1Coll(ptr noundef %78, i32 noundef 0, i64 noundef %79)
  %81 = load i64, ptr %8, align 8
  %82 = load i8, ptr %9, align 1, !range !4, !noundef !5
  %83 = trunc i8 %82 to i1
  %84 = call ptr @build_local_reloptions(ptr noundef %13, i64 noundef %81, i1 noundef zeroext %83)
  store ptr %84, ptr %5, align 8
  store i32 1, ptr %17, align 4
  br label %85

85:                                               ; preds = %72, %69
  call void @llvm.lifetime.end.p0(i64 24, ptr %13) #7
  call void @llvm.lifetime.end.p0(i64 8, ptr %12) #7
  call void @llvm.lifetime.end.p0(i64 4, ptr %11) #7
  call void @llvm.lifetime.end.p0(i64 4, ptr %10) #7
  %86 = load ptr, ptr %5, align 8
  ret ptr %86
}