; Function Attrs: nounwind uwtable
define dso_local ptr @index_opclass_options(ptr noundef %0, i16 noundef signext %1, i64 noundef %2, i1 noundef zeroext %3) local_unnamed_addr #0 {
  %5 = alloca %struct.local_relopts, align 8
  %6 = getelementptr inbounds nuw i8, ptr %0, i64 352
  %7 = load ptr, ptr %6, align 8
  %8 = getelementptr inbounds nuw i8, ptr %7, i64 8
  %9 = load i16, ptr %8, align 8
  call void @llvm.lifetime.start.p0(i64 24, ptr nonnull %5) #7
  %.not = icmp eq i16 %9, 0
  br i1 %.not, label %.critedge, label %10

10:                                               ; preds = %4
  %11 = getelementptr inbounds nuw i8, ptr %7, i64 6
  %12 = load i16, ptr %11, align 2
  %13 = zext i16 %12 to i64
  %14 = sext i16 %1 to i64
  %15 = add nsw i64 %14, 4294967295
  %16 = mul nuw nsw i64 %15, %13
  %17 = zext i16 %9 to i64
  %18 = add nuw nsw i64 %17, 4294967295
  %19 = add nuw nsw i64 %18, %16
  %20 = getelementptr inbounds nuw i8, ptr %0, i64 376
  %21 = load ptr, ptr %20, align 8
  %sext.i = shl i64 %19, 32
  %22 = ashr exact i64 %sext.i, 30
  %23 = getelementptr inbounds i8, ptr %21, i64 %22
  %24 = load i32, ptr %23, align 4
  %25 = icmp eq i32 %24, 0
  br i1 %25, label %.critedge, label %40

.critedge:                                        ; preds = %4, %10
  %.not21 = icmp eq i64 %2, 0
  br i1 %.not21, label %45, label %26

26:                                               ; preds = %.critedge
  %27 = getelementptr inbounds nuw i8, ptr %0, i64 336
  %28 = load ptr, ptr %27, align 8
  %29 = tail call i64 @SysCacheGetAttrNotNull(i32 noundef 34, ptr noundef %28, i16 noundef signext 18) #7
  %30 = inttoptr i64 %29 to ptr
  %31 = getelementptr inbounds nuw i8, ptr %30, i64 24
  %32 = sext i16 %1 to i64
  %33 = add nsw i64 %32, -1
  %34 = getelementptr inbounds [0 x i32], ptr %31, i64 0, i64 %33
  %35 = load i32, ptr %34, align 4
  %36 = tail call zeroext i1 @errstart_cold(i32 noundef 21, ptr noundef null) #8
  tail call void @llvm.assume(i1 %36)
  %37 = tail call i32 @errcode(i32 noundef 50856066) #7
  %38 = tail call ptr @generate_opclass_name(i32 noundef %35) #7
  %39 = tail call i32 (ptr, ...) @errmsg(ptr noundef nonnull @.str.14, ptr noundef %38) #7
  tail call void @errfinish(ptr noundef nonnull @.str.1, i32 noundef 1031, ptr noundef nonnull @__func__.index_opclass_options) #7
  unreachable

40:                                               ; preds = %10
  call void @init_local_reloptions(ptr noundef nonnull %5, i64 noundef 0) #7
  %41 = call ptr @index_getprocinfo(ptr noundef nonnull %0, i16 noundef signext %1, i16 noundef zeroext %9)
  %42 = ptrtoint ptr %5 to i64
  %43 = call i64 @FunctionCall1Coll(ptr noundef %41, i32 noundef 0, i64 noundef %42) #7
  %44 = call ptr @build_local_reloptions(ptr noundef nonnull %5, i64 noundef %2, i1 noundef zeroext %3) #7
  br label %45

45:                                               ; preds = %.critedge, %40
  %.0 = phi ptr [ %44, %40 ], [ null, %.critedge ]
  call void @llvm.lifetime.end.p0(i64 24, ptr nonnull %5) #7
  ret ptr %.0
}